target datalayout = "e-m:e-p270:32:32-p271:32:32-p272:64:64-i64:64-i128:128-f80:128-n8:16:32:64-S128"
target triple = "x86_64-pc-linux-gnu"

%struct._packet_info = type { ptr, ptr, i32, i32, %struct.nstime_t, %struct.nstime_t, %struct.nstime_t, i8, ptr, ptr, ptr, ptr, %struct._address, %struct._address, %struct._address, %struct._address, %struct._address, %struct._address, i32, ptr, i8, [3 x i8], %struct.anon, i32, i32, i32, i32, ptr, i8, ptr, ptr, i16, i16, i32, i32, i16, i32, i32, ptr, ptr, ptr, i8, i8, i16, i16, i16, i32, i16, i16, ptr, ptr, ptr, ptr, ptr, i32, i32 }
%struct.nstime_t = type { i64, i32 }
%struct._address = type { i32, i32, ptr, ptr }
%struct.anon = type { i8, [3 x i8] }
%struct._asn1_ctx_t = type { i32, i32, i8, ptr, ptr, ptr, ptr, ptr, %struct.anon.0, %struct.anon.3, %struct.anon.4, ptr }
%struct.anon.0 = type { i32, i8, i8, i8, ptr, ptr, i32, i32, ptr, ptr, ptr, %union.anon }
%union.anon = type { %struct.anon.1 }
%struct.anon.1 = type { ptr }
%struct.anon.3 = type { ptr, ptr, ptr }
%struct.anon.4 = type { i32, i8, ptr, i32, i32, ptr, ptr, ptr, %union.anon.5 }
%union.anon.5 = type { %struct.anon.6 }
%struct.anon.6 = type { ptr }
%struct.atn_conversation_t = type { i32 }

@atn_conversation_tree = internal global ptr null, align 8
@hf_atn_ulcs_ACSE_apdu_PDU = internal global i32 0, align 4
@ett_atn_ulcs_ACSE_apdu = internal global i32 0, align 4
@ett_atn_acse = internal global i32 0, align 4
@atn_ulcs_heur_subdissector_list = internal global ptr null, align 8
@atn_cm_handle = internal global ptr null, align 8
@atn_cpdlc_handle = internal global ptr null, align 8
@root_tree = internal global ptr null, align 8
@.str.262 = private unnamed_addr constant [46 x i8] c"ICAO Doc9705 ULCS ACSE (ISO 8649/8650-1:1996)\00", align 1
@ulcs_context_value = internal global i32 0, align 4

; Function Attrs: nounwind null_pointer_is_valid sspstrong uwtable
define hidden ptr @get_atn_conversation_tree() #3 {
  %1 = load ptr, ptr @atn_conversation_tree, align 8
  ret ptr %1
}

; Function Attrs: inlinehint nounwind null_pointer_is_valid sspstrong uwtable
define internal i32 @add_address_to_hash(i32 noundef %0, ptr noundef %1) #4 {
  %3 = alloca i32, align 4
  %4 = alloca ptr, align 8
  %5 = alloca ptr, align 8
  %6 = alloca i32, align 4
  store i32 %0, ptr %3, align 4
  store ptr %1, ptr %4, align 8
  call void @llvm.lifetime.start.p0(i64 8, ptr %5) #9
  %7 = load ptr, ptr %4, align 8
  %8 = getelementptr inbounds nuw %struct._address, ptr %7, i32 0, i32 2
  %9 = load ptr, ptr %8, align 8
  store ptr %9, ptr %5, align 8
  call void @llvm.lifetime.start.p0(i64 4, ptr %6) #9
  store i32 0, ptr %6, align 4
  br label %10

10:                                               ; preds = %33, %2
  %11 = load i32, ptr %6, align 4
  %12 = load ptr, ptr %4, align 8
  %13 = getelementptr inbounds nuw %struct._address, ptr %12, i32 0, i32 1
  %14 = load i32, ptr %13, align 4
  %15 = icmp slt i32 %11, %14
  br i1 %15, label %16, label %36

16:                                               ; preds = %10
  %17 = load ptr, ptr %5, align 8
  %18 = load i32, ptr %6, align 4
  %19 = sext i32 %18 to i64
  %20 = getelementptr i8, ptr %17, i64 %19
  %21 = load i8, ptr %20, align 1
  %22 = zext i8 %21 to i32
  %23 = load i32, ptr %3, align 4
  %24 = add i32 %23, %22
  store i32 %24, ptr %3, align 4
  %25 = load i32, ptr %3, align 4
  %26 = shl i32 %25, 10
  %27 = load i32, ptr %3, align 4
  %28 = add i32 %27, %26
  store i32 %28, ptr %3, align 4
  %29 = load i32, ptr %3, align 4
  %30 = lshr i32 %29, 6
  %31 = load i32, ptr %3, align 4
  %32 = xor i32 %31, %30
  store i32 %32, ptr %3, align 4
  br label %33

33:                                               ; preds = %16
  %34 = load i32, ptr %6, align 4
  %35 = add i32 %34, 1
  store i32 %35, ptr %6, align 4
  br label %10, !llvm.loop !6

36:                                               ; preds = %10
  %37 = load i32, ptr %3, align 4
  call void @llvm.lifetime.end.p0(i64 4, ptr %6) #9
  call void @llvm.lifetime.end.p0(i64 8, ptr %5) #9
  ret i32 %37
}

; Function Attrs: null_pointer_is_valid sspstrong uwtable
define internal i32 @dissect_atn_ulcs_ACSE_apdu(ptr noundef %0, i32 noundef %1, ptr noundef %2, ptr noundef %3, i32 noundef %4) #0 {
  %6 = alloca ptr, align 8
  %7 = alloca i32, align 4
  %8 = alloca ptr, align 8
  %9 = alloca ptr, align 8
  %10 = alloca i32, align 4
  store ptr %0, ptr %6, align 8
  store i32 %1, ptr %7, align 4
  store ptr %2, ptr %8, align 8
  store ptr %3, ptr %9, align 8
  store i32 %4, ptr %10, align 4
  %11 = load ptr, ptr %6, align 8
  %12 = load i32, ptr %7, align 4
  %13 = load ptr, ptr %8, align 8
  %14 = load ptr, ptr %9, align 8
  %15 = load i32, ptr %10, align 4
  %16 = load i32, ptr @ett_atn_ulcs_ACSE_apdu, align 4
  %17 = call i32 @dissect_per_choice(ptr noundef %11, i32 noundef %12, ptr noundef %13, ptr noundef %14, i32 noundef %15, i32 noundef %16, ptr noundef @ACSE_apdu_choice, ptr noundef null)
  store i32 %17, ptr %7, align 4
  %18 = load i32, ptr %7, align 4
  ret i32 %18
}

; Function Attrs: null_pointer_is_valid sspstrong uwtable
define hidden ptr @find_atn_conversation(ptr noundef %0, i16 noundef zeroext %1, ptr noundef %2) #0 {
  %4 = alloca ptr, align 8
  %5 = alloca i16, align 2
  %6 = alloca ptr, align 8
  %7 = alloca ptr, align 8
  %8 = alloca i32, align 4
  %9 = alloca i32, align 4
  store ptr %0, ptr %4, align 8
  store i16 %1, ptr %5, align 2
  store ptr %2, ptr %6, align 8
  call void @llvm.lifetime.start.p0(i64 8, ptr %7) #9
  store ptr null, ptr %7, align 8
  call void @llvm.lifetime.start.p0(i64 4, ptr %8) #9
  store i32 0, ptr %8, align 4
  call void @llvm.lifetime.start.p0(i64 4, ptr %9) #9
  store i32 0, ptr %9, align 4
  %10 = load i32, ptr %9, align 4
  %11 = load ptr, ptr %4, align 8
  %12 = call i32 @add_address_to_hash(i32 noundef %10, ptr noundef %11)
  store i32 %12, ptr %9, align 4
  %13 = load i32, ptr %9, align 4
  %14 = shl i32 %13, 16
  %15 = load i16, ptr %5, align 2
  %16 = zext i16 %15 to i32
  %17 = or i32 %14, %16
  store i32 %17, ptr %8, align 4
  %18 = load i32, ptr %9, align 4
  %19 = load ptr, ptr %6, align 8
  %20 = call i32 @add_address_to_hash(i32 noundef %18, ptr noundef %19)
  store i32 %20, ptr %9, align 4
  %21 = load i32, ptr %9, align 4
  %22 = shl i32 %21, 24
  %23 = load i32, ptr %8, align 4
  %24 = or i32 %22, %23
  store i32 %24, ptr %8, align 4
  %25 = call ptr @get_atn_conversation_tree()
  %26 = load i32, ptr %8, align 4
  %27 = call ptr @wmem_tree_lookup32(ptr noundef %25, i32 noundef %26)
  store ptr %27, ptr %7, align 8
  %28 = load ptr, ptr %7, align 8
  call void @llvm.lifetime.end.p0(i64 4, ptr %9) #9
  call void @llvm.lifetime.end.p0(i64 4, ptr %8) #9
  call void @llvm.lifetime.end.p0(i64 8, ptr %7) #9
  ret ptr %28
}

; Function Attrs: null_pointer_is_valid sspstrong uwtable
define internal i32 @dissect_ACSE_apdu_PDU(ptr noundef %0, ptr noundef %1, ptr noundef %2, ptr noundef %3) #0 {
  %5 = alloca ptr, align 8
  %6 = alloca ptr, align 8
  %7 = alloca ptr, align 8
  %8 = alloca ptr, align 8
  %9 = alloca i32, align 4
  %10 = alloca %struct._asn1_ctx_t, align 8
  store ptr %0, ptr %5, align 8
  store ptr %1, ptr %6, align 8
  store ptr %2, ptr %7, align 8
  store ptr %3, ptr %8, align 8
  call void @llvm.lifetime.start.p0(i64 4, ptr %9) #9
  store i32 0, ptr %9, align 4
  call void @llvm.lifetime.start.p0(i64 208, ptr %10) #9
  %11 = load ptr, ptr %6, align 8
  call void @asn1_ctx_init(ptr noundef %10, i32 noundef 1, i1 noundef zeroext false, ptr noundef %11)
  %12 = load ptr, ptr %5, align 8
  %13 = load i32, ptr %9, align 4
  %14 = load ptr, ptr %7, align 8
  %15 = load i32, ptr @hf_atn_ulcs_ACSE_apdu_PDU, align 4
  %16 = call i32 @dissect_atn_ulcs_ACSE_apdu(ptr noundef %12, i32 noundef %13, ptr noundef %10, ptr noundef %14, i32 noundef %15)
  store i32 %16, ptr %9, align 4
  %17 = load i32, ptr %9, align 4
  %18 = add i32 %17, 7
  store i32 %18, ptr %9, align 4
  %19 = load i32, ptr %9, align 4
  %20 = ashr i32 %19, 3
  store i32 %20, ptr %9, align 4
  %21 = load i32, ptr %9, align 4
  call void @llvm.lifetime.end.p0(i64 208, ptr %10) #9
  call void @llvm.lifetime.end.p0(i64 4, ptr %9) #9
  ret i32 %21
}

; Function Attrs: null_pointer_is_valid sspstrong uwtable
define internal i32 @dissect_atn_ulcs_T_pdv_list_presentation_data_values_arbitrary(ptr noundef %0, i32 noundef %1, ptr noundef %2, ptr noundef %3, i32 noundef %4) #0 {
  %6 = alloca ptr, align 8
  %7 = alloca i32, align 4
  %8 = alloca ptr, align 8
  %9 = alloca ptr, align 8
  %10 = alloca i32, align 4
  %11 = alloca ptr, align 8
  %12 = alloca ptr, align 8
  %13 = alloca ptr, align 8
  %14 = alloca ptr, align 8
  %15 = alloca ptr, align 8
  store ptr %0, ptr %6, align 8
  store i32 %1, ptr %7, align 4
  store ptr %2, ptr %8, align 8
  store ptr %3, ptr %9, align 8
  store i32 %4, ptr %10, align 4
  call void @llvm.lifetime.start.p0(i64 8, ptr %11) #9
  %16 = load ptr, ptr %8, align 8
  %17 = getelementptr inbounds nuw %struct._asn1_ctx_t, ptr %16, i32 0, i32 3
  %18 = load ptr, ptr %17, align 8
  store ptr %18, ptr %11, align 8
  call void @llvm.lifetime.start.p0(i64 8, ptr %12) #9
  store ptr null, ptr %12, align 8
  call void @llvm.lifetime.start.p0(i64 8, ptr %13) #9
  store ptr null, ptr %13, align 8
  call void @llvm.lifetime.start.p0(i64 8, ptr %14) #9
  store ptr null, ptr %14, align 8
  call void @llvm.lifetime.start.p0(i64 8, ptr %15) #9
  %19 = load ptr, ptr %6, align 8
  %20 = load i32, ptr %7, align 4
  %21 = load ptr, ptr %8, align 8
  %22 = load ptr, ptr %9, align 8
  %23 = load i32, ptr %10, align 4
  %24 = call i32 @dissect_per_bit_string(ptr noundef %19, i32 noundef %20, ptr noundef %21, ptr noundef %22, i32 noundef %23, i32 noundef -1, i32 noundef -1, i1 noundef zeroext false, ptr noundef null, i32 noundef 0, ptr noundef %12, ptr noundef null)
  store i32 %24, ptr %7, align 4
  %25 = load ptr, ptr %12, align 8
  %26 = icmp ne ptr %25, null
  br i1 %26, label %27, label %91

27:                                               ; preds = %5
  %28 = load i32, ptr @ulcs_context_value, align 4
  switch i32 %28, label %89 [
    i32 1, label %29
    i32 3, label %40
  ]

29:                                               ; preds = %27
  %30 = load ptr, ptr @root_tree, align 8
  %31 = load ptr, ptr %6, align 8
  %32 = load i32, ptr %7, align 4
  %33 = load i32, ptr @ett_atn_acse, align 4
  %34 = call ptr @proto_tree_add_subtree(ptr noundef %30, ptr noundef %31, i32 noundef %32, i32 noundef 0, i32 noundef %33, ptr noundef null, ptr noundef @.str.262)
  store ptr %34, ptr %13, align 8
  %35 = load ptr, ptr %12, align 8
  %36 = call ptr @tvb_new_subset_remaining(ptr noundef %35, i32 noundef 0)
  %37 = load ptr, ptr %11, align 8
  %38 = load ptr, ptr %13, align 8
  %39 = call i32 @dissect_ACSE_apdu_PDU(ptr noundef %36, ptr noundef %37, ptr noundef %38, ptr noundef null)
  br label %90

40:                                               ; preds = %27
  %41 = load ptr, ptr %11, align 8
  %42 = getelementptr inbounds nuw %struct._packet_info, ptr %41, i32 0, i32 17
  %43 = load ptr, ptr %11, align 8
  %44 = getelementptr inbounds nuw %struct._packet_info, ptr %43, i32 0, i32 45
  %45 = load i16, ptr %44, align 2
  %46 = load ptr, ptr %11, align 8
  %47 = getelementptr inbounds nuw %struct._packet_info, ptr %46, i32 0, i32 16
  %48 = call ptr @find_atn_conversation(ptr noundef %42, i16 noundef zeroext %45, ptr noundef %47)
  store ptr %48, ptr %14, align 8
  %49 = load ptr, ptr %14, align 8
  %50 = icmp ne ptr %49, null
  br i1 %50, label %51, label %79

51:                                               ; preds = %40
  %52 = load ptr, ptr %14, align 8
  %53 = getelementptr inbounds nuw %struct.atn_conversation_t, ptr %52, i32 0, i32 0
  %54 = load i32, ptr %53, align 4
  switch i32 %54, label %69 [
    i32 1, label %55
    i32 2, label %62
    i32 22, label %62
  ]

55:                                               ; preds = %51
  %56 = load ptr, ptr @atn_cm_handle, align 8
  %57 = load ptr, ptr %12, align 8
  %58 = call ptr @tvb_new_subset_remaining(ptr noundef %57, i32 noundef 0)
  %59 = load ptr, ptr %11, align 8
  %60 = load ptr, ptr @root_tree, align 8
  %61 = call i32 @call_dissector_with_data(ptr noundef %56, ptr noundef %58, ptr noundef %59, ptr noundef %60, ptr noundef null)
  br label %78

62:                                               ; preds = %51, %51
  %63 = load ptr, ptr @atn_cpdlc_handle, align 8
  %64 = load ptr, ptr %12, align 8
  %65 = call ptr @tvb_new_subset_remaining(ptr noundef %64, i32 noundef 0)
  %66 = load ptr, ptr %11, align 8
  %67 = load ptr, ptr @root_tree, align 8
  %68 = call i32 @call_dissector_with_data(ptr noundef %63, ptr noundef %65, ptr noundef %66, ptr noundef %67, ptr noundef null)
  br label %78

69:                                               ; preds = %51
  %70 = load ptr, ptr @atn_ulcs_heur_subdissector_list, align 8
  %71 = load ptr, ptr %12, align 8
  %72 = call ptr @tvb_new_subset_remaining(ptr noundef %71, i32 noundef 0)
  %73 = load ptr, ptr %8, align 8
  %74 = getelementptr inbounds nuw %struct._asn1_ctx_t, ptr %73, i32 0, i32 3
  %75 = load ptr, ptr %74, align 8
  %76 = load ptr, ptr @root_tree, align 8
  %77 = call zeroext i1 @dissector_try_heuristic(ptr noundef %70, ptr noundef %72, ptr noundef %75, ptr noundef %76, ptr noundef %15, ptr noundef null)
  br label %78

78:                                               ; preds = %69, %62, %55
  br label %88

79:                                               ; preds = %40
  %80 = load ptr, ptr @atn_ulcs_heur_subdissector_list, align 8
  %81 = load ptr, ptr %12, align 8
  %82 = call ptr @tvb_new_subset_remaining(ptr noundef %81, i32 noundef 0)
  %83 = load ptr, ptr %8, align 8
  %84 = getelementptr inbounds nuw %struct._asn1_ctx_t, ptr %83, i32 0, i32 3
  %85 = load ptr, ptr %84, align 8
  %86 = load ptr, ptr @root_tree, align 8
  %87 = call zeroext i1 @dissector_try_heuristic(ptr noundef %80, ptr noundef %82, ptr noundef %85, ptr noundef %86, ptr noundef %15, ptr noundef null)
  br label %88

88:                                               ; preds = %79, %78
  br label %90

89:                                               ; preds = %27
  br label %90

90:                                               ; preds = %89, %88, %29
  br label %91

91:                                               ; preds = %90, %5
  %92 = load i32, ptr %7, align 4
  call void @llvm.lifetime.end.p0(i64 8, ptr %15) #9
  call void @llvm.lifetime.end.p0(i64 8, ptr %14) #9
  call void @llvm.lifetime.end.p0(i64 8, ptr %13) #9
  call void @llvm.lifetime.end.p0(i64 8, ptr %12) #9
  call void @llvm.lifetime.end.p0(i64 8, ptr %11) #9
  ret i32 %92
}