; Function Attrs: null_pointer_is_valid sspstrong uwtable
define internal i32 @dissect_atn_ulcs_T_pdv_list_presentation_data_values_arbitrary(ptr noundef %0, i32 noundef %1, ptr noundef %2, ptr noundef %3, i32 noundef %4) #0 {
  %6 = alloca %struct._asn1_ctx_t, align 8
  %7 = alloca ptr, align 8
  %8 = alloca ptr, align 8
  %9 = getelementptr inbounds nuw i8, ptr %2, i64 16
  %10 = load ptr, ptr %9, align 8
  call void @llvm.lifetime.start.p0(i64 8, ptr nonnull %7) #6
  store ptr null, ptr %7, align 8
  call void @llvm.lifetime.start.p0(i64 8, ptr nonnull %8) #6
  %11 = call i32 @dissect_per_bit_string(ptr noundef %0, i32 noundef %1, ptr noundef %2, ptr noundef %3, i32 noundef %4, i32 noundef -1, i32 noundef -1, i1 noundef zeroext false, ptr noundef null, i32 noundef 0, ptr noundef nonnull %7, ptr noundef null)
  %12 = load ptr, ptr %7, align 8
  %.not = icmp eq ptr %12, null
  br i1 %.not, label %86, label %13

13:                                               ; preds = %5
  %14 = load i32, ptr @ulcs_context_value, align 4
  switch i32 %14, label %86 [
    i32 1, label %15
    i32 3, label %24
  ]

15:                                               ; preds = %13
  %16 = load ptr, ptr @root_tree, align 8
  %17 = load i32, ptr @ett_atn_acse, align 4
  %18 = call ptr @proto_tree_add_subtree(ptr noundef %16, ptr noundef %0, i32 noundef %11, i32 noundef 0, i32 noundef %17, ptr noundef null, ptr noundef nonnull @.str.262)
  %19 = load ptr, ptr %7, align 8
  %20 = call ptr @tvb_new_subset_remaining(ptr noundef %19, i32 noundef 0)
  call void @llvm.lifetime.start.p0(i64 208, ptr nonnull %6) #6
  call void @asn1_ctx_init(ptr noundef nonnull %6, i32 noundef 1, i1 noundef zeroext false, ptr noundef %10)
  %21 = load i32, ptr @hf_atn_ulcs_ACSE_apdu_PDU, align 4
  %22 = load i32, ptr @ett_atn_ulcs_ACSE_apdu, align 4
  %23 = call i32 @dissect_per_choice(ptr noundef %20, i32 noundef 0, ptr noundef nonnull %6, ptr noundef %18, i32 noundef %21, i32 noundef %22, ptr noundef nonnull @ACSE_apdu_choice, ptr noundef null)
  call void @llvm.lifetime.end.p0(i64 208, ptr nonnull %6) #6
  br label %86

24:                                               ; preds = %13
  %25 = getelementptr inbounds nuw i8, ptr %10, i64 382
  %26 = load i16, ptr %25, align 2
  %27 = getelementptr inbounds nuw i8, ptr %10, i64 240
  %28 = load ptr, ptr %27, align 8
  %29 = getelementptr inbounds nuw i8, ptr %10, i64 236
  %30 = load i32, ptr %29, align 4
  %31 = icmp sgt i32 %30, 0
  br i1 %31, label %.lr.ph.preheader.i.i, label %add_address_to_hash.exit.i

.lr.ph.preheader.i.i:                             ; preds = %24
  %wide.trip.count.i.i = zext nneg i32 %30 to i64
  br label %.lr.ph.i.i

.lr.ph.i.i:                                       ; preds = %.lr.ph.i.i, %.lr.ph.preheader.i.i
  %indvars.iv.i.i = phi i64 [ 0, %.lr.ph.preheader.i.i ], [ %indvars.iv.next.i.i, %.lr.ph.i.i ]
  %.01112.i.i = phi i32 [ 0, %.lr.ph.preheader.i.i ], [ %38, %.lr.ph.i.i ]
  %32 = getelementptr i8, ptr %28, i64 %indvars.iv.i.i
  %33 = load i8, ptr %32, align 1
  %34 = zext i8 %33 to i32
  %35 = add i32 %.01112.i.i, %34
  %36 = mul i32 %35, 1025
  %37 = lshr i32 %36, 6
  %38 = xor i32 %37, %36
  %indvars.iv.next.i.i = add nuw nsw i64 %indvars.iv.i.i, 1
  %exitcond.not.i.i = icmp eq i64 %indvars.iv.next.i.i, %wide.trip.count.i.i
  br i1 %exitcond.not.i.i, label %add_address_to_hash.exit.i, label %.lr.ph.i.i, !llvm.loop !6

add_address_to_hash.exit.i:                       ; preds = %.lr.ph.i.i, %24
  %.011.lcssa.i.i = phi i32 [ 0, %24 ], [ %38, %.lr.ph.i.i ]
  %39 = getelementptr inbounds nuw i8, ptr %10, i64 216
  %40 = load ptr, ptr %39, align 8
  %41 = getelementptr inbounds nuw i8, ptr %10, i64 212
  %42 = load i32, ptr %41, align 4
  %43 = icmp sgt i32 %42, 0
  br i1 %43, label %.lr.ph.preheader.i10.i, label %find_atn_conversation.exit

.lr.ph.preheader.i10.i:                           ; preds = %add_address_to_hash.exit.i
  %wide.trip.count.i11.i = zext nneg i32 %42 to i64
  br label %.lr.ph.i12.i

.lr.ph.i12.i:                                     ; preds = %.lr.ph.i12.i, %.lr.ph.preheader.i10.i
  %indvars.iv.i13.i = phi i64 [ 0, %.lr.ph.preheader.i10.i ], [ %indvars.iv.next.i15.i, %.lr.ph.i12.i ]
  %.01112.i14.i = phi i32 [ %.011.lcssa.i.i, %.lr.ph.preheader.i10.i ], [ %50, %.lr.ph.i12.i ]
  %44 = getelementptr i8, ptr %40, i64 %indvars.iv.i13.i
  %45 = load i8, ptr %44, align 1
  %46 = zext i8 %45 to i32
  %47 = add i32 %.01112.i14.i, %46
  %48 = mul i32 %47, 1025
  %49 = lshr i32 %48, 6
  %50 = xor i32 %49, %48
  %indvars.iv.next.i15.i = add nuw nsw i64 %indvars.iv.i13.i, 1
  %exitcond.not.i16.i = icmp eq i64 %indvars.iv.next.i15.i, %wide.trip.count.i11.i
  br i1 %exitcond.not.i16.i, label %find_atn_conversation.exit, label %.lr.ph.i12.i, !llvm.loop !6

find_atn_conversation.exit:                       ; preds = %.lr.ph.i12.i, %add_address_to_hash.exit.i
  %.011.lcssa.i9.i = phi i32 [ %.011.lcssa.i.i, %add_address_to_hash.exit.i ], [ %50, %.lr.ph.i12.i ]
  %51 = shl i32 %.011.lcssa.i.i, 16
  %52 = zext i16 %26 to i32
  %53 = or disjoint i32 %51, %52
  %54 = shl i32 %.011.lcssa.i9.i, 24
  %55 = or i32 %54, %53
  %56 = load ptr, ptr @atn_conversation_tree, align 8
  %57 = call ptr @wmem_tree_lookup32(ptr noundef %56, i32 noundef %55)
  %.not19 = icmp eq ptr %57, null
  br i1 %.not19, label %79, label %58

58:                                               ; preds = %find_atn_conversation.exit
  %59 = load i32, ptr %57, align 4
  switch i32 %59, label %72 [
    i32 1, label %60
    i32 2, label %66
    i32 22, label %66
  ]

60:                                               ; preds = %58
  %61 = load ptr, ptr @atn_cm_handle, align 8
  %62 = load ptr, ptr %7, align 8
  %63 = call ptr @tvb_new_subset_remaining(ptr noundef %62, i32 noundef 0)
  %64 = load ptr, ptr @root_tree, align 8
  %65 = call i32 @call_dissector_with_data(ptr noundef %61, ptr noundef %63, ptr noundef %10, ptr noundef %64, ptr noundef null)
  br label %86

66:                                               ; preds = %58, %58
  %67 = load ptr, ptr @atn_cpdlc_handle, align 8
  %68 = load ptr, ptr %7, align 8
  %69 = call ptr @tvb_new_subset_remaining(ptr noundef %68, i32 noundef 0)
  %70 = load ptr, ptr @root_tree, align 8
  %71 = call i32 @call_dissector_with_data(ptr noundef %67, ptr noundef %69, ptr noundef %10, ptr noundef %70, ptr noundef null)
  br label %86

72:                                               ; preds = %58
  %73 = load ptr, ptr @atn_ulcs_heur_subdissector_list, align 8
  %74 = load ptr, ptr %7, align 8
  %75 = call ptr @tvb_new_subset_remaining(ptr noundef %74, i32 noundef 0)
  %76 = load ptr, ptr %9, align 8
  %77 = load ptr, ptr @root_tree, align 8
  %78 = call zeroext i1 @dissector_try_heuristic(ptr noundef %73, ptr noundef %75, ptr noundef %76, ptr noundef %77, ptr noundef nonnull %8, ptr noundef null)
  br label %86

79:                                               ; preds = %find_atn_conversation.exit
  %80 = load ptr, ptr @atn_ulcs_heur_subdissector_list, align 8
  %81 = load ptr, ptr %7, align 8
  %82 = call ptr @tvb_new_subset_remaining(ptr noundef %81, i32 noundef 0)
  %83 = load ptr, ptr %9, align 8
  %84 = load ptr, ptr @root_tree, align 8
  %85 = call zeroext i1 @dissector_try_heuristic(ptr noundef %80, ptr noundef %82, ptr noundef %83, ptr noundef %84, ptr noundef nonnull %8, ptr noundef null)
  br label %86

86:                                               ; preds = %15, %60, %66, %72, %79, %13, %5
  call void @llvm.lifetime.end.p0(i64 8, ptr nonnull %8) #6
  call void @llvm.lifetime.end.p0(i64 8, ptr nonnull %7) #6
  ret i32 %11
}